; Function Attrs: mustprogress noinline uwtable
define hidden noundef ptr @_ZN6google8protobuf5Arena18CreateMaybeMessageIN17opencv_tensorflow5OpDefEJEEEPT_PS1_DpOT0_(ptr noundef %0) local_unnamed_addr #16 align 2 personality ptr @__gxx_personality_v0 {
  %2 = icmp eq ptr %0, null
  br i1 %2, label %_ZN6google8protobuf5Arena14InternalHelperIN17opencv_tensorflow5OpDefEE3NewEv.exit, label %8

_ZN6google8protobuf5Arena14InternalHelperIN17opencv_tensorflow5OpDefEE3NewEv.exit: ; preds = %1
  %3 = tail call noalias noundef nonnull dereferenceable(128) ptr @_Znwm(i64 noundef 128) #22
  %4 = getelementptr inbounds nuw i8, ptr %3, i64 8
  store i64 0, ptr %4, align 8, !tbaa !3
  store ptr getelementptr inbounds nuw inrange(-16, 152) (i8, ptr @_ZTVN17opencv_tensorflow5OpDefE, i64 16), ptr %3, align 8, !tbaa !8
  %5 = getelementptr inbounds nuw i8, ptr %3, i64 16
  %6 = getelementptr inbounds nuw i8, ptr %3, i64 124
  store i32 0, ptr %6, align 4, !tbaa !10
  %7 = getelementptr inbounds nuw i8, ptr %3, i64 88
  tail call void @llvm.memset.p0.i64(ptr noundef nonnull align 8 dereferenceable(72) %5, i8 0, i64 72, i1 false)
  store ptr @_ZN6google8protobuf8internal26fixed_address_empty_stringB5cxx11E, ptr %7, align 8, !tbaa !13
  br label %_ZN6google8protobuf5Arena21CreateMessageInternalIN17opencv_tensorflow5OpDefEEEPT_PS1_.exit

8:                                                ; preds = %1
  %9 = tail call noundef ptr @_ZN6google8protobuf5Arena23AllocateAlignedWithHookEmPKSt9type_info(ptr noundef nonnull align 8 dereferenceable(32) %0, i64 noundef 128, ptr noundef nonnull @_ZTIN17opencv_tensorflow5OpDefE)
  %10 = getelementptr inbounds nuw i8, ptr %9, i64 8
  %11 = ptrtoint ptr %0 to i64
  store i64 %11, ptr %10, align 8, !tbaa !3
  store ptr getelementptr inbounds nuw inrange(-16, 152) (i8, ptr @_ZTVN17opencv_tensorflow5OpDefE, i64 16), ptr %9, align 8, !tbaa !8
  %12 = getelementptr inbounds nuw i8, ptr %9, i64 16
  store ptr %0, ptr %12, align 8, !tbaa !70
  %13 = getelementptr inbounds nuw i8, ptr %9, i64 24
  tail call void @llvm.memset.p0.i64(ptr noundef nonnull align 8 dereferenceable(16) %13, i8 0, i64 16, i1 false)
  %14 = getelementptr inbounds nuw i8, ptr %9, i64 40
  store ptr %0, ptr %14, align 8, !tbaa !70
  %15 = getelementptr inbounds nuw i8, ptr %9, i64 48
  tail call void @llvm.memset.p0.i64(ptr noundef nonnull align 8 dereferenceable(16) %15, i8 0, i64 16, i1 false)
  %16 = getelementptr inbounds nuw i8, ptr %9, i64 64
  store ptr %0, ptr %16, align 8, !tbaa !70
  %17 = getelementptr inbounds nuw i8, ptr %9, i64 72
  tail call void @llvm.memset.p0.i64(ptr noundef nonnull align 8 dereferenceable(16) %17, i8 0, i64 16, i1 false)
  %18 = getelementptr inbounds nuw i8, ptr %9, i64 124
  store i32 0, ptr %18, align 4, !tbaa !10
  %19 = getelementptr inbounds nuw i8, ptr %9, i64 88
  store ptr @_ZN6google8protobuf8internal26fixed_address_empty_stringB5cxx11E, ptr %19, align 8, !tbaa !13
  br label %_ZN6google8protobuf5Arena21CreateMessageInternalIN17opencv_tensorflow5OpDefEEEPT_PS1_.exit

_ZN6google8protobuf5Arena21CreateMessageInternalIN17opencv_tensorflow5OpDefEEEPT_PS1_.exit: ; preds = %_ZN6google8protobuf5Arena14InternalHelperIN17opencv_tensorflow5OpDefEE3NewEv.exit, %8
  %.sink4 = phi ptr [ %3, %_ZN6google8protobuf5Arena14InternalHelperIN17opencv_tensorflow5OpDefEE3NewEv.exit ], [ %9, %8 ]
  %20 = getelementptr inbounds nuw i8, ptr %.sink4, i64 96
  store ptr @_ZN6google8protobuf8internal26fixed_address_empty_stringB5cxx11E, ptr %20, align 8, !tbaa !13
  %21 = getelementptr inbounds nuw i8, ptr %.sink4, i64 104
  store ptr @_ZN6google8protobuf8internal26fixed_address_empty_stringB5cxx11E, ptr %21, align 8, !tbaa !13
  %22 = getelementptr inbounds nuw i8, ptr %.sink4, i64 112
  tail call void @llvm.memset.p0.i64(ptr noundef nonnull align 8 dereferenceable(12) %22, i8 0, i64 12, i1 false)
  ret ptr %.sink4
}